; Function Attrs: inlinehint mustprogress nounwind uwtable
define internal void @_ZN9grpc_core12_GLOBAL__N_117XdsOverrideHostLb17SubchannelWrapper24ConnectivityStateWatcherD0Ev(ptr noundef nonnull align 8 dereferenceable(16) %0) unnamed_addr #14 align 2 personality ptr @__gxx_personality_v0 {
  %2 = getelementptr inbounds nuw i8, ptr %0, i64 8
  %.val.i = load ptr, ptr %2, align 8, !tbaa !450
  %.not.i.i = icmp eq ptr %.val.i, null
  br i1 %.not.i.i, label %_ZN9grpc_core12_GLOBAL__N_117XdsOverrideHostLb17SubchannelWrapper24ConnectivityStateWatcherD2Ev.exit, label %3

3:                                                ; preds = %1
  %4 = getelementptr inbounds nuw i8, ptr %.val.i, i64 8
  %5 = atomicrmw sub ptr %4, i64 1 acq_rel, align 8
  %6 = icmp eq i64 %5, 1
  br i1 %6, label %7, label %_ZN9grpc_core12_GLOBAL__N_117XdsOverrideHostLb17SubchannelWrapper24ConnectivityStateWatcherD2Ev.exit, !prof !47

7:                                                ; preds = %3
  %8 = load ptr, ptr %.val.i, align 8, !tbaa !6
  %9 = getelementptr inbounds nuw i8, ptr %8, i64 8
  %10 = load ptr, ptr %9, align 8
  tail call void %10(ptr noundef nonnull align 8 dereferenceable(16) %.val.i) #40
  br label %_ZN9grpc_core12_GLOBAL__N_117XdsOverrideHostLb17SubchannelWrapper24ConnectivityStateWatcherD2Ev.exit

_ZN9grpc_core12_GLOBAL__N_117XdsOverrideHostLb17SubchannelWrapper24ConnectivityStateWatcherD2Ev.exit: ; preds = %1, %3, %7
  tail call void @_ZdlPvm(ptr noundef nonnull %0, i64 noundef 16) #43
  ret void
}